; Function Attrs: mustprogress nounwind uwtable
define internal fastcc void @_ZN5clang24EvaluatedExprVisitorBaseIN4llvm14make_const_ptrEN12_GLOBAL__N_120NonTrivialCallFinderEE18VisitCXXTypeidExprEPKNS_13CXXTypeidExprE(ptr noundef nonnull align 8 dereferenceable(8) %0, ptr noundef nonnull %1) unnamed_addr #1 align 2 {
  %3 = tail call noundef zeroext i1 @_ZNK5clang13CXXTypeidExpr22isPotentiallyEvaluatedEv(ptr noundef nonnull align 8 dereferenceable(32) %1) #28
  br i1 %3, label %4, label %8

4:                                                ; preds = %2
  %5 = getelementptr inbounds nuw i8, ptr %1, i64 16
  %.0.copyload.i.i.i.i.i.i.i.i.i = load i64, ptr %5, align 8
  %6 = and i64 %.0.copyload.i.i.i.i.i.i.i.i.i, -8
  %7 = inttoptr i64 %6 to ptr
  tail call fastcc void @_ZN5clang15StmtVisitorBaseIN4llvm14make_const_ptrEN12_GLOBAL__N_120NonTrivialCallFinderEvJEE5VisitEPKNS_4StmtE(ptr noundef nonnull align 1 dereferenceable(1) %0, ptr noundef %7)
  br label %8

8:                                                ; preds = %4, %2
  ret void
}